	.file	"bufdemo.c"
	.text
.Ltext0:
	.file 0 "/home/tumi/Documents/tof/v8/progs" "bufdemo.c"
	.globl	gets
	.type	gets, @function
gets:
.LVL0:
.LFB39:
	.file 1 "bufdemo.c"
	.loc 1 7 1 view -0
	.cfi_startproc
	.loc 1 7 1 is_stmt 0 view .LVU1
	endbr64
	pushq	%rbp
	.cfi_def_cfa_offset 16
	.cfi_offset 6, -16
	pushq	%rbx
	.cfi_def_cfa_offset 24
	.cfi_offset 3, -24
	subq	$8, %rsp
	.cfi_def_cfa_offset 32
	movq	%rdi, %rbp
	.loc 1 8 5 is_stmt 1 view .LVU2
	.loc 1 9 5 view .LVU3
.LVL1:
	.loc 1 10 5 view .LVU4
	.loc 1 9 11 is_stmt 0 view .LVU5
	movq	%rdi, %rbx
	.loc 1 10 11 view .LVU6
	jmp	.L2
.LVL2:
.L4:
	.loc 1 11 9 is_stmt 1 view .LVU7
	.loc 1 11 17 is_stmt 0 view .LVU8
	movb	%al, (%rbx)
	.loc 1 11 14 view .LVU9
	leaq	1(%rbx), %rbx
.LVL3:
.L2:
	.loc 1 10 36 is_stmt 1 view .LVU10
.LBB6:
.LBI6:
	.file 2 "/usr/include/x86_64-linux-gnu/bits/stdio.h"
	.loc 2 47 1 view .LVU11
.LBB7:
	.loc 2 49 3 view .LVU12
	.loc 2 49 10 is_stmt 0 view .LVU13
	movq	stdin(%rip), %rdi
	call	getc@PLT
.LVL4:
	.loc 2 49 10 view .LVU14
.LBE7:
.LBE6:
	.loc 1 10 36 view .LVU15
	cmpl	$10, %eax
	je	.L3
	.loc 1 10 36 discriminator 1 view .LVU16
	cmpl	$-1, %eax
	jne	.L4
.L3:
	.loc 1 12 5 is_stmt 1 view .LVU17
	.loc 1 12 11 is_stmt 0 view .LVU18
	cmpl	$-1, %eax
	sete	%dl
	.loc 1 12 26 view .LVU19
	cmpq	%rbp, %rbx
	sete	%al
.LVL5:
	.loc 1 12 8 view .LVU20
	testb	%al, %dl
	jne	.L6
	.loc 1 14 5 is_stmt 1 view .LVU21
.LVL6:
	.loc 1 14 13 is_stmt 0 view .LVU22
	movb	$0, (%rbx)
	.loc 1 15 5 is_stmt 1 view .LVU23
	.loc 1 15 12 is_stmt 0 view .LVU24
	movq	%rbp, %rax
.LVL7:
.L1:
	.loc 1 16 1 view .LVU25
	addq	$8, %rsp
	.cfi_remember_state
	.cfi_def_cfa_offset 24
	popq	%rbx
	.cfi_def_cfa_offset 16
	popq	%rbp
	.cfi_def_cfa_offset 8
.LVL8:
	.loc 1 16 1 view .LVU26
	ret
.LVL9:
.L6:
	.cfi_restore_state
	.loc 1 13 16 view .LVU27
	movl	$0, %eax
	jmp	.L1
	.cfi_endproc
.LFE39:
	.size	gets, .-gets
	.globl	echo
	.type	echo, @function
echo:
.LFB40:
	.loc 1 20 1 is_stmt 1 view -0
	.cfi_startproc
	endbr64
	pushq	%rbx
	.cfi_def_cfa_offset 16
	.cfi_offset 3, -16
	subq	$16, %rsp
	.cfi_def_cfa_offset 32
	.loc 1 20 1 is_stmt 0 view .LVU29
	movq	%fs:40, %rax
	movq	%rax, 8(%rsp)
	xorl	%eax, %eax
	.loc 1 21 5 is_stmt 1 view .LVU30
	.loc 1 22 5 view .LVU31
	leaq	4(%rsp), %rbx
	movq	%rbx, %rdi
	call	gets
.LVL10:
	.loc 1 23 5 view .LVU32
	movq	%rbx, %rdi
	call	puts@PLT
.LVL11:
	.loc 1 24 1 is_stmt 0 view .LVU33
	movq	8(%rsp), %rax
	subq	%fs:40, %rax
	jne	.L11
	addq	$16, %rsp
	.cfi_remember_state
	.cfi_def_cfa_offset 16
	popq	%rbx
	.cfi_def_cfa_offset 8
	ret
.L11:
	.cfi_restore_state
	call	__stack_chk_fail@PLT
.LVL12:
	.cfi_endproc
.LFE40:
	.size	echo, .-echo
	.section	.rodata.str1.1,"aMS",@progbits,1
.LC0:
	.string	"Type a string:"
	.text
	.globl	main
	.type	main, @function
main:
.LVL13:
.LFB41:
	.loc 1 27 1 is_stmt 1 view -0
	.cfi_startproc
	.loc 1 27 1 is_stmt 0 view .LVU35
	endbr64
	subq	$8, %rsp
	.cfi_def_cfa_offset 16
	.loc 1 28 5 is_stmt 1 view .LVU36
.LVL14:
.LBB8:
.LBI8:
	.file 3 "/usr/include/x86_64-linux-gnu/bits/stdio2.h"
	.loc 3 110 1 view .LVU37
.LBB9:
	.loc 3 112 3 view .LVU38
	.loc 3 112 10 is_stmt 0 view .LVU39
	leaq	.LC0(%rip), %rsi
.LVL15:
	.loc 3 112 10 view .LVU40
	movl	$1, %edi
.LVL16:
	.loc 3 112 10 view .LVU41
	movl	$0, %eax
	call	__printf_chk@PLT
.LVL17:
	.loc 3 112 10 view .LVU42
.LBE9:
.LBE8:
	.loc 1 30 5 is_stmt 1 view .LVU43
	movl	$0, %eax
	call	echo
.LVL18:
	.loc 1 32 5 view .LVU44
	.loc 1 33 1 is_stmt 0 view .LVU45
	movl	$0, %eax
	addq	$8, %rsp
	.cfi_def_cfa_offset 8
	ret
	.cfi_endproc
.LFE41:
	.size	main, .-main
.Letext0:
	.file 4 "/usr/lib/gcc/x86_64-linux-gnu/11/include/stddef.h"
	.file 5 "/usr/include/x86_64-linux-gnu/bits/types.h"
	.file 6 "/usr/include/x86_64-linux-gnu/bits/types/struct_FILE.h"
	.file 7 "/usr/include/x86_64-linux-gnu/bits/types/FILE.h"
	.file 8 "/usr/include/stdio.h"
	.section	.note.GNU-stack,"",@progbits
	.section	.note.gnu.property,"a"
	.align 8
	.long	1f - 0f
	.long	4f - 1f
	.long	5
0:
	.string	"GNU"
1:
	.align 8
	.long	0xc0000002
	.long	3f - 2f
2:
	.long	0x3
3:
	.align 8
4:
